target datalayout = "e-m:e-p270:32:32-p271:32:32-p272:64:64-i64:64-i128:128-f80:128-n8:16:32:64-S128"
target triple = "x86_64-pc-linux-gnu"

@hf_aim_tlvcount = internal global i32 0, align 4
@hf_admin_acctinfo_permissions = internal global i32 0, align 4

; Function Attrs: null_pointer_is_valid sspstrong uwtable
define internal i32 @dissect_aim_tlv_list(ptr noundef %0, ptr noundef %1, i32 noundef %2, ptr noundef %3, ptr noundef %4) #0 {
  %6 = alloca ptr, align 8
  %7 = alloca ptr, align 8
  %8 = alloca i32, align 4
  %9 = alloca ptr, align 8
  %10 = alloca ptr, align 8
  %11 = alloca i16, align 2
  %12 = alloca i16, align 2
  store ptr %0, ptr %6, align 8
  store ptr %1, ptr %7, align 8
  store i32 %2, ptr %8, align 4
  store ptr %3, ptr %9, align 8
  store ptr %4, ptr %10, align 8
  call void @llvm.lifetime.start.p0(i64 2, ptr %11) #13
  call void @llvm.lifetime.start.p0(i64 2, ptr %12) #13
  %13 = load ptr, ptr %6, align 8
  %14 = load i32, ptr %8, align 4
  %15 = call zeroext i16 @tvb_get_ntohs(ptr noundef %13, i32 noundef %14)
  store i16 %15, ptr %12, align 2
  %16 = load ptr, ptr %9, align 8
  %17 = load i32, ptr @hf_aim_tlvcount, align 4
  %18 = load ptr, ptr %6, align 8
  %19 = load i32, ptr %8, align 4
  %20 = call ptr @proto_tree_add_item(ptr noundef %16, i32 noundef %17, ptr noundef %18, i32 noundef %19, i32 noundef 2, i32 noundef 0)
  %21 = load i32, ptr %8, align 4
  %22 = add i32 %21, 2
  store i32 %22, ptr %8, align 4
  store i16 0, ptr %11, align 2
  br label %23

23:                                               ; preds = %36, %5
  %24 = load i16, ptr %11, align 2
  %25 = zext i16 %24 to i32
  %26 = load i16, ptr %12, align 2
  %27 = zext i16 %26 to i32
  %28 = icmp slt i32 %25, %27
  br i1 %28, label %29, label %39

29:                                               ; preds = %23
  %30 = load ptr, ptr %6, align 8
  %31 = load ptr, ptr %7, align 8
  %32 = load i32, ptr %8, align 4
  %33 = load ptr, ptr %9, align 8
  %34 = load ptr, ptr %10, align 8
  %35 = call i32 @dissect_aim_tlv(ptr noundef %30, ptr noundef %31, i32 noundef %32, ptr noundef %33, ptr noundef %34)
  store i32 %35, ptr %8, align 4
  br label %36

36:                                               ; preds = %29
  %37 = load i16, ptr %11, align 2
  %38 = add i16 %37, 1
  store i16 %38, ptr %11, align 2
  br label %23, !llvm.loop !15

39:                                               ; preds = %23
  %40 = load i32, ptr %8, align 4
  call void @llvm.lifetime.end.p0(i64 2, ptr %12) #13
  call void @llvm.lifetime.end.p0(i64 2, ptr %11) #13
  ret i32 %40
}

; Function Attrs: null_pointer_is_valid sspstrong uwtable
define internal i32 @dissect_aim_admin_accnt_info_repl(ptr noundef %0, ptr noundef %1, ptr noundef %2) #0 {
  %4 = alloca ptr, align 8
  %5 = alloca ptr, align 8
  %6 = alloca ptr, align 8
  %7 = alloca i32, align 4
  store ptr %0, ptr %4, align 8
  store ptr %1, ptr %5, align 8
  store ptr %2, ptr %6, align 8
  call void @llvm.lifetime.start.p0(i64 4, ptr %7) #13
  store i32 0, ptr %7, align 4
  %8 = load ptr, ptr %6, align 8
  %9 = load i32, ptr @hf_admin_acctinfo_permissions, align 4
  %10 = load ptr, ptr %4, align 8
  %11 = load i32, ptr %7, align 4
  %12 = call ptr @proto_tree_add_item(ptr noundef %8, i32 noundef %9, ptr noundef %10, i32 noundef %11, i32 noundef 2, i32 noundef 0)
  %13 = load i32, ptr %7, align 4
  %14 = add i32 %13, 2
  store i32 %14, ptr %7, align 4
  %15 = load ptr, ptr %4, align 8
  %16 = load ptr, ptr %5, align 8
  %17 = load i32, ptr %7, align 4
  %18 = load ptr, ptr %6, align 8
  %19 = call i32 @dissect_aim_tlv_list(ptr noundef %15, ptr noundef %16, i32 noundef %17, ptr noundef %18, ptr noundef @aim_client_tlvs)
  call void @llvm.lifetime.end.p0(i64 4, ptr %7) #13
  ret i32 %19
}