; Function Attrs: null_pointer_is_valid sspstrong uwtable
define internal i32 @dissect_aim_admin_accnt_info_repl(ptr noundef %0, ptr noundef %1, ptr noundef %2) #0 {
  %4 = load i32, ptr @hf_admin_acctinfo_permissions, align 4
  %5 = tail call ptr @proto_tree_add_item(ptr noundef %2, i32 noundef %4, ptr noundef %0, i32 noundef 0, i32 noundef 2, i32 noundef 0)
  %6 = tail call zeroext i16 @tvb_get_ntohs(ptr noundef %0, i32 noundef 2)
  %7 = load i32, ptr @hf_aim_tlvcount, align 4
  %8 = tail call ptr @proto_tree_add_item(ptr noundef %2, i32 noundef %7, ptr noundef %0, i32 noundef 2, i32 noundef 2, i32 noundef 0)
  %.not.i = icmp eq i16 %6, 0
  br i1 %.not.i, label %dissect_aim_tlv_list.exit, label %.lr.ph.i

.lr.ph.i:                                         ; preds = %3, %.lr.ph.i
  %.016.i = phi i32 [ %9, %.lr.ph.i ], [ 4, %3 ]
  %.01415.i = phi i16 [ %10, %.lr.ph.i ], [ 0, %3 ]
  %9 = tail call fastcc i32 @dissect_aim_tlv(ptr noundef %0, ptr noundef %1, i32 noundef %.016.i, ptr noundef %2, ptr noundef nonnull @aim_client_tlvs)
  %10 = add nuw i16 %.01415.i, 1
  %exitcond.not.i = icmp eq i16 %10, %6
  br i1 %exitcond.not.i, label %dissect_aim_tlv_list.exit, label %.lr.ph.i, !llvm.loop !14

dissect_aim_tlv_list.exit:                        ; preds = %.lr.ph.i, %3
  %.0.lcssa.i = phi i32 [ 4, %3 ], [ %9, %.lr.ph.i ]
  ret i32 %.0.lcssa.i
}